target datalayout = "e-m:e-p270:32:32-p271:32:32-p272:64:64-i64:64-i128:128-f80:128-n8:16:32:64-S128"
target triple = "x86_64-pc-linux-gnu"

%struct.VVCLocalContext = type { i8, i8, i8, i8, i32, i32, [4 x i8], [3276800 x i8], [16384 x i16], [16384 x i16], [16384 x i16], [32768 x i8], [332800 x i8], [368640 x i8], [368640 x i8], [17424 x i32], %struct.anon, %struct.anon.0, ptr, [2 x [1024 x %struct.ReconstructedArea]], [2 x i32], %struct.NeighbourAvailable, i32, ptr, ptr, ptr, ptr }
%struct.anon = type { i32, i8, i32, i32, i32, [3 x i32], i32, i32, i32, i32, i32, i32 }
%struct.anon.0 = type { i32, i32, i32 }
%struct.ReconstructedArea = type { i32, i32, i32, i32 }
%struct.NeighbourAvailable = type { i32, i32, i32, i32, i32 }
%struct.EntryPoint = type { i8, [3 x i32], [3 x %struct.Palette], [378 x %struct.VVCCabacState], %struct.CABACContext, i32, i32, i8, [7 x i8], [5 x %struct.MvField], i32, [4 x i8], [5 x %struct.MvField], i32 }
%struct.Palette = type { i8, [63 x i16] }
%struct.VVCCabacState = type { [2 x i16], [2 x i8] }
%struct.CABACContext = type { i32, i32, ptr, ptr, ptr }
%struct.MvField = type { [2 x %struct.Mv], [2 x i8], i8, i8, i8, i8 }
%struct.Mv = type { i32, i32 }

; Function Attrs: nounwind uwtable
define internal void @refill(ptr noundef %0) #0 {
  %2 = alloca ptr, align 8
  store ptr %0, ptr %2, align 8, !tbaa !104
  %3 = load ptr, ptr %2, align 8, !tbaa !104
  %4 = getelementptr inbounds nuw %struct.CABACContext, ptr %3, i32 0, i32 3
  %5 = load ptr, ptr %4, align 8, !tbaa !209
  %6 = getelementptr inbounds i8, ptr %5, i64 0
  %7 = load i8, ptr %6, align 1, !tbaa !101
  %8 = zext i8 %7 to i32
  %9 = shl i32 %8, 9
  %10 = load ptr, ptr %2, align 8, !tbaa !104
  %11 = getelementptr inbounds nuw %struct.CABACContext, ptr %10, i32 0, i32 3
  %12 = load ptr, ptr %11, align 8, !tbaa !209
  %13 = getelementptr inbounds i8, ptr %12, i64 1
  %14 = load i8, ptr %13, align 1, !tbaa !101
  %15 = zext i8 %14 to i32
  %16 = shl i32 %15, 1
  %17 = add nsw i32 %9, %16
  %18 = load ptr, ptr %2, align 8, !tbaa !104
  %19 = getelementptr inbounds nuw %struct.CABACContext, ptr %18, i32 0, i32 0
  %20 = load i32, ptr %19, align 8, !tbaa !108
  %21 = add nsw i32 %20, %17
  store i32 %21, ptr %19, align 8, !tbaa !108
  %22 = load ptr, ptr %2, align 8, !tbaa !104
  %23 = getelementptr inbounds nuw %struct.CABACContext, ptr %22, i32 0, i32 0
  %24 = load i32, ptr %23, align 8, !tbaa !108
  %25 = sub nsw i32 %24, 65535
  store i32 %25, ptr %23, align 8, !tbaa !108
  %26 = load ptr, ptr %2, align 8, !tbaa !104
  %27 = getelementptr inbounds nuw %struct.CABACContext, ptr %26, i32 0, i32 3
  %28 = load ptr, ptr %27, align 8, !tbaa !209
  %29 = load ptr, ptr %2, align 8, !tbaa !104
  %30 = getelementptr inbounds nuw %struct.CABACContext, ptr %29, i32 0, i32 4
  %31 = load ptr, ptr %30, align 8, !tbaa !211
  %32 = icmp ult ptr %28, %31
  br i1 %32, label %33, label %38

33:                                               ; preds = %1
  %34 = load ptr, ptr %2, align 8, !tbaa !104
  %35 = getelementptr inbounds nuw %struct.CABACContext, ptr %34, i32 0, i32 3
  %36 = load ptr, ptr %35, align 8, !tbaa !209
  %37 = getelementptr inbounds i8, ptr %36, i64 2
  store ptr %37, ptr %35, align 8, !tbaa !209
  br label %38

38:                                               ; preds = %33, %1
  ret void
}

; Function Attrs: nounwind uwtable
define internal i32 @get_cabac_bypass(ptr noundef %0) #0 {
  %2 = alloca i32, align 4
  %3 = alloca ptr, align 8
  %4 = alloca i32, align 4
  %5 = alloca i32, align 4
  store ptr %0, ptr %3, align 8, !tbaa !104
  call void @llvm.lifetime.start.p0(i64 4, ptr %4) #9
  %6 = load ptr, ptr %3, align 8, !tbaa !104
  %7 = getelementptr inbounds nuw %struct.CABACContext, ptr %6, i32 0, i32 0
  %8 = load i32, ptr %7, align 8, !tbaa !108
  %9 = load ptr, ptr %3, align 8, !tbaa !104
  %10 = getelementptr inbounds nuw %struct.CABACContext, ptr %9, i32 0, i32 0
  %11 = load i32, ptr %10, align 8, !tbaa !108
  %12 = add nsw i32 %11, %8
  store i32 %12, ptr %10, align 8, !tbaa !108
  %13 = load ptr, ptr %3, align 8, !tbaa !104
  %14 = getelementptr inbounds nuw %struct.CABACContext, ptr %13, i32 0, i32 0
  %15 = load i32, ptr %14, align 8, !tbaa !108
  %16 = and i32 %15, 65535
  %17 = icmp ne i32 %16, 0
  br i1 %17, label %20, label %18

18:                                               ; preds = %1
  %19 = load ptr, ptr %3, align 8, !tbaa !104
  call void @refill(ptr noundef %19)
  br label %20

20:                                               ; preds = %18, %1
  %21 = load ptr, ptr %3, align 8, !tbaa !104
  %22 = getelementptr inbounds nuw %struct.CABACContext, ptr %21, i32 0, i32 1
  %23 = load i32, ptr %22, align 4, !tbaa !106
  %24 = shl i32 %23, 17
  store i32 %24, ptr %4, align 4, !tbaa !9
  %25 = load ptr, ptr %3, align 8, !tbaa !104
  %26 = getelementptr inbounds nuw %struct.CABACContext, ptr %25, i32 0, i32 0
  %27 = load i32, ptr %26, align 8, !tbaa !108
  %28 = load i32, ptr %4, align 4, !tbaa !9
  %29 = icmp slt i32 %27, %28
  br i1 %29, label %30, label %31

30:                                               ; preds = %20
  store i32 0, ptr %2, align 4
  store i32 1, ptr %5, align 4
  br label %37

31:                                               ; preds = %20
  %32 = load i32, ptr %4, align 4, !tbaa !9
  %33 = load ptr, ptr %3, align 8, !tbaa !104
  %34 = getelementptr inbounds nuw %struct.CABACContext, ptr %33, i32 0, i32 0
  %35 = load i32, ptr %34, align 8, !tbaa !108
  %36 = sub nsw i32 %35, %32
  store i32 %36, ptr %34, align 8, !tbaa !108
  store i32 1, ptr %2, align 4
  store i32 1, ptr %5, align 4
  br label %37

37:                                               ; preds = %31, %30
  call void @llvm.lifetime.end.p0(i64 4, ptr %4) #9
  %38 = load i32, ptr %2, align 4
  ret i32 %38
}

; Function Attrs: nounwind uwtable
define zeroext i1 @ff_vvc_palette_escape_val_present_flag(ptr noundef %0) #0 {
  %2 = alloca ptr, align 8
  store ptr %0, ptr %2, align 8, !tbaa !4
  %3 = load ptr, ptr %2, align 8, !tbaa !4
  %4 = getelementptr inbounds nuw %struct.VVCLocalContext, ptr %3, i32 0, i32 25
  %5 = load ptr, ptr %4, align 16, !tbaa !71
  %6 = getelementptr inbounds nuw %struct.EntryPoint, ptr %5, i32 0, i32 4
  %7 = call i32 @get_cabac_bypass(ptr noundef %6)
  %8 = icmp ne i32 %7, 0
  ret i1 %8
}